target datalayout = "e-m:e-p270:32:32-p271:32:32-p272:64:64-i64:64-i128:128-f80:128-n8:16:32:64-S128"
target triple = "x86_64-pc-linux-gnu"

%"class.std::error_code" = type { i32, ptr }
%"class.llvm::sys::MemoryBlock" = type <{ ptr, i64, i32, [4 x i8] }>
%"class.std::__cxx11::basic_string" = type { %"struct.std::__cxx11::basic_string<char>::_Alloc_hider", i64, %union.anon.15 }
%"struct.std::__cxx11::basic_string<char>::_Alloc_hider" = type { ptr }
%union.anon.15 = type { i64, [8 x i8] }
%"class.(anonymous namespace)::InMemoryBuffer" = type <{ %"class.llvm::FileOutputBuffer", %"class.llvm::sys::OwningMemoryBlock", i64, i32, [4 x i8] }>
%"class.llvm::FileOutputBuffer" = type { ptr, %"class.std::__cxx11::basic_string" }
%"class.llvm::sys::OwningMemoryBlock" = type { %"class.llvm::sys::MemoryBlock" }

; Function Attrs: mustprogress nounwind uwtable
define linkonce_odr hidden noundef ptr @_ZNK4llvm3sys11MemoryBlock4baseEv(ptr noundef nonnull align 8 dereferenceable(20) %0) #0 comdat align 2 {
  %2 = alloca ptr, align 8
  store ptr %0, ptr %2, align 8
  %3 = load ptr, ptr %2, align 8
  %4 = getelementptr inbounds nuw %"class.llvm::sys::MemoryBlock", ptr %3, i32 0, i32 0
  %5 = load ptr, ptr %4, align 8
  ret ptr %5
}

; Function Attrs: mustprogress nounwind uwtable
define linkonce_odr hidden void @_ZN4llvm16FileOutputBufferD2Ev(ptr noundef nonnull align 8 dereferenceable(40) %0) unnamed_addr #0 comdat align 2 {
  %2 = alloca ptr, align 8
  store ptr %0, ptr %2, align 8
  %3 = load ptr, ptr %2, align 8
  store ptr getelementptr inbounds inrange(-16, 56) ({ [9 x ptr] }, ptr @_ZTVN4llvm16FileOutputBufferE, i32 0, i32 0, i32 2), ptr %3, align 8
  %4 = getelementptr inbounds nuw %"class.llvm::FileOutputBuffer", ptr %3, i32 0, i32 1
  call void @_ZNSt7__cxx1112basic_stringIcSt11char_traitsIcESaIcEED1Ev(ptr noundef nonnull align 8 dereferenceable(32) %4) #11
  ret void
}

; Function Attrs: mustprogress nounwind uwtable
define linkonce_odr hidden void @_ZN4llvm3sys17OwningMemoryBlockD2Ev(ptr noundef nonnull align 8 dereferenceable(24) %0) unnamed_addr #0 comdat align 2 {
  %2 = alloca ptr, align 8
  %3 = alloca %"class.std::error_code", align 8
  store ptr %0, ptr %2, align 8
  %4 = load ptr, ptr %2, align 8
  %5 = getelementptr inbounds nuw %"class.llvm::sys::OwningMemoryBlock", ptr %4, i32 0, i32 0
  %6 = call noundef ptr @_ZNK4llvm3sys11MemoryBlock4baseEv(ptr noundef nonnull align 8 dereferenceable(20) %5)
  %7 = icmp ne ptr %6, null
  br i1 %7, label %8, label %15

8:                                                ; preds = %1
  %9 = getelementptr inbounds nuw %"class.llvm::sys::OwningMemoryBlock", ptr %4, i32 0, i32 0
  %10 = call { i32, ptr } @_ZN4llvm3sys6Memory19releaseMappedMemoryERNS0_11MemoryBlockE(ptr noundef nonnull align 8 dereferenceable(20) %9)
  %11 = getelementptr inbounds nuw { i32, ptr }, ptr %3, i32 0, i32 0
  %12 = extractvalue { i32, ptr } %10, 0
  store i32 %12, ptr %11, align 8
  %13 = getelementptr inbounds nuw { i32, ptr }, ptr %3, i32 0, i32 1
  %14 = extractvalue { i32, ptr } %10, 1
  store ptr %14, ptr %13, align 8
  br label %15

15:                                               ; preds = %8, %1
  ret void
}

; Function Attrs: mustprogress nounwind uwtable
define internal void @_ZN12_GLOBAL__N_114InMemoryBufferD2Ev(ptr noundef nonnull align 8 dereferenceable(76) %0) unnamed_addr #0 align 2 {
  %2 = alloca ptr, align 8
  store ptr %0, ptr %2, align 8
  %3 = load ptr, ptr %2, align 8
  store ptr getelementptr inbounds inrange(-16, 56) ({ [9 x ptr] }, ptr @_ZTVN12_GLOBAL__N_114InMemoryBufferE, i32 0, i32 0, i32 2), ptr %3, align 8
  %4 = getelementptr inbounds nuw %"class.(anonymous namespace)::InMemoryBuffer", ptr %3, i32 0, i32 1
  call void @_ZN4llvm3sys17OwningMemoryBlockD2Ev(ptr noundef nonnull align 8 dereferenceable(24) %4) #11
  call void @_ZN4llvm16FileOutputBufferD2Ev(ptr noundef nonnull align 8 dereferenceable(40) %3) #11
  ret void
}