; Function Attrs: mustprogress nounwind uwtable
define internal void @_ZN12_GLOBAL__N_114InMemoryBufferD2Ev(ptr noundef nonnull align 8 dereferenceable(76) %0) unnamed_addr #0 align 2 {
  store ptr getelementptr inbounds inrange(-16, 56) (i8, ptr @_ZTVN12_GLOBAL__N_114InMemoryBufferE, i64 16), ptr %0, align 8
  %2 = getelementptr inbounds nuw i8, ptr %0, i64 40
  %3 = load ptr, ptr %2, align 8
  %.not.i = icmp eq ptr %3, null
  br i1 %.not.i, label %_ZN4llvm3sys17OwningMemoryBlockD2Ev.exit, label %4

4:                                                ; preds = %1
  %5 = tail call { i32, ptr } @_ZN4llvm3sys6Memory19releaseMappedMemoryERNS0_11MemoryBlockE(ptr noundef nonnull align 8 dereferenceable(20) %2) #15
  br label %_ZN4llvm3sys17OwningMemoryBlockD2Ev.exit

_ZN4llvm3sys17OwningMemoryBlockD2Ev.exit:         ; preds = %1, %4
  store ptr getelementptr inbounds inrange(-16, 56) (i8, ptr @_ZTVN4llvm16FileOutputBufferE, i64 16), ptr %0, align 8
  %6 = getelementptr inbounds nuw i8, ptr %0, i64 8
  tail call void @_ZNSt7__cxx1112basic_stringIcSt11char_traitsIcESaIcEED1Ev(ptr noundef nonnull align 8 dereferenceable(32) %6) #15
  ret void
}